ASxxxx Linker V03.00/V05.40 + sdld,  page 1.
Hexadecimal  [32-Bits]

Area                                    Addr        Size        Decimal Bytes (Attributes)
--------------------------------        ----        ----        ------- ----- ------------
.  .ABS.                            00000000    00000000 =           0. bytes (ABS,CON)

      Value  Global                              Global Defined In Module
      -----  --------------------------------   ------------------------
     00000000  .__.ABS.                           call_hl
     00000000  _rRAMG                             
     00000000  l__BASE                         
     00000000  l__BSS                          
     00000000  l__CABS                         
     00000000  l__CODE_0                       
     00000000  l__DABS                         
     00000000  l__FONT_HEADER                  
     00000000  l__HEADER                       
     00000000  l__HEADER_LCD                   
     00000000  l__HEADER_TIM                   
     00000000  l__HEAP                         
     00000000  l__HEAP_END                     
     00000000  l__HRAM                         
     00000000  l__LIT                          
     00000000  s__CABS                         
     00000000  s__DABS                         
     00000000  s__FONT_HEADER                  
     00000000  s__FONT_HEADER0                 
     00000000  s__HEADER                       
     00000000  s__HEADER0                      
     00000000  s__HEADER1                      
     00000000  s__HEADER10                     
     00000000  s__HEADER11                     
     00000000  s__HEADER2                      
     00000000  s__HEADER3                      
     00000000  s__HEADER4                      
     00000000  s__HEADER5                      
     00000000  s__HEADER6                      
     00000000  s__HEADER7                      
     00000000  s__HEADER8                      
     00000000  s__HEADER9                      
     00000000  s__HEADER_LCD                   
     00000000  s__HEADER_LCD0                  
     00000000  s__HEADER_TIM                   
     00000000  s__HEADER_TIM0                  
     00000000  s__HEADERa                      
     00000000  s__HEADERb                      
     00000000  s__HEADERc                      
     00000000  s__HEADERd                      
     00000000  s__HEADERe                      
     00000000  s__HEADERf                      
     00000000  s__HRAM                         
     00000000  s__HRAM12                       
     00000001  l__GSFINAL                      
     00000001  l__HEADER0                      
     00000001  l__HEADER5                      
     00000001  l__HEADERa                      
     00000001  l__HEADERb                      
     00000001  l__HEADERc                      
ASxxxx Linker V03.00/V05.40 + sdld,  page 2.
Hexadecimal  [32-Bits]

Area                                    Addr        Size        Decimal Bytes (Attributes)
--------------------------------        ----        ----        ------- ----- ------------
.  .ABS.                            00000000    00000000 =           0. bytes (ABS,CON)

      Value  Global                              Global Defined In Module
      -----  --------------------------------   ------------------------
     00000001  l__HEADERe                      
     00000001  l__HEADERf                      
     00000002  l__HEADER10                     
     00000002  l__HEADER6                      
     00000002  l__HEADERd                      
     00000003  l__FONT_HEADER0                 
     00000003  l__HEADER9                      
     00000003  l__HEADER_LCD0                  
     00000003  l__HRAM12                       
     00000005  l__HEADER1                      
     00000006  l__HEADER8                      
     00000006  l__INITIALIZED                  
     00000006  l__INITIALIZER                  
     00000007  l__HEADER2                      
     00000008  l__HEADER3                      
     00000008  l__HEADER_TIM0                  
     00000011  l__GSINIT                       
     00000030  l__HEADER7                      
     00000043  l__DATA                         
     00000060  l__HEADER4                      
     000000AB  l__HEADER11                     
     00000200  s__CODE                         
     000009BB  l__CODE                         
     00000BBB  s__HOME                         
     00000C1E  l__HOME                         
     000017D9  s__BASE                         
     000017D9  s__CODE_0                       
     000017D9  s__INITIALIZER                  
     000017D9  s__LIT                          
     000017DF  s__GSINIT                       
     000017F0  s__GSFINAL                      
     00002000  _rROMB0                            
     00003000  _rROMB1                            
     00004000  _rRAMB                             
     00008000  __VRAM                             
     00008000  __VRAM8000                         
     00008800  __VRAM8800                         
     00009000  __VRAM9000                         
     00009800  __SCRN0                            
     00009C00  __SCRN1                            
     0000A000  __SRAM                             
     0000C000  __RAM                              
     0000C000  _shadow_OAM                     
     0000C0A0  s__DATA                         
     0000C0E3  s__BSS                          
     0000C0E3  s__INITIALIZED                  
     0000C0E9  s__HEAP                         
     0000C0E9  s__HEAP_END                     
     0000D000  __RAMBANK                          
     0000E000  .STACK                          
     0000FE00  __OAMRAM                           
ASxxxx Linker V03.00/V05.40 + sdld,  page 3.
Hexadecimal  [32-Bits]

Area                                    Addr        Size        Decimal Bytes (Attributes)
--------------------------------        ----        ----        ------- ----- ------------
.  .ABS.                            00000000    00000000 =           0. bytes (ABS,CON)

      Value  Global                              Global Defined In Module
      -----  --------------------------------   ------------------------
     0000FF00  _P1_REG                            
     0000FF00  __IO                               
     0000FF01  _SB_REG                            
     0000FF02  _SC_REG                            
     0000FF04  _DIV_REG                           
     0000FF05  _TIMA_REG                          
     0000FF06  _TMA_REG                           
     0000FF07  _TAC_REG                           
     0000FF0F  _IF_REG                            
     0000FF10  _NR10_REG                          
     0000FF11  _NR11_REG                          
     0000FF12  _NR12_REG                          
     0000FF13  _NR13_REG                          
     0000FF14  _NR14_REG                          
     0000FF16  _NR21_REG                          
     0000FF17  _NR22_REG                          
     0000FF18  _NR23_REG                          
     0000FF19  _NR24_REG                          
     0000FF1A  _NR30_REG                          
     0000FF1B  _NR31_REG                          
     0000FF1C  _NR32_REG                          
     0000FF1D  _NR33_REG                          
     0000FF1E  _NR34_REG                          
     0000FF20  _NR41_REG                          
     0000FF21  _NR42_REG                          
     0000FF22  _NR43_REG                          
     0000FF23  _NR44_REG                          
     0000FF24  _NR50_REG                          
     0000FF25  _NR51_REG                          
     0000FF26  _NR52_REG                          
     0000FF30  _AUD3WAVE                          
     0000FF30  _PCM_SAMPLE                        
     0000FF30  __AUD3WAVERAM                      
     0000FF40  _LCDC_REG                          
     0000FF41  _STAT_REG                          
     0000FF42  _SCY_REG                           
     0000FF43  _SCX_REG                           
     0000FF44  _LY_REG                            
     0000FF45  _LYC_REG                           
     0000FF46  _DMA_REG                           
     0000FF47  _BGP_REG                           
     0000FF48  _OBP0_REG                          
     0000FF49  _OBP1_REG                          
     0000FF4A  _WY_REG                            
     0000FF4B  _WX_REG                            
     0000FF4D  _KEY1_REG                          
     0000FF4F  _VBK_REG                           
     0000FF51  _HDMA1_REG                         
     0000FF52  _HDMA2_REG                         
     0000FF53  _HDMA3_REG                         
     0000FF54  _HDMA4_REG                         
ASxxxx Linker V03.00/V05.40 + sdld,  page 4.
Hexadecimal  [32-Bits]

Area                                    Addr        Size        Decimal Bytes (Attributes)
--------------------------------        ----        ----        ------- ----- ------------
.  .ABS.                            00000000    00000000 =           0. bytes (ABS,CON)

      Value  Global                              Global Defined In Module
      -----  --------------------------------   ------------------------
     0000FF55  _HDMA5_REG                         
     0000FF56  _RP_REG                            
     0000FF68  _BCPS_REG                          
     0000FF69  _BCPD_REG                          
     0000FF6A  _OCPS_REG                          
     0000FF6B  _OCPD_REG                          
     0000FF70  _SVBK_REG                          
     0000FF76  _PCM12_REG                         
     0000FF77  _PCM34_REG                         
     0000FF80  .refresh_OAM                    
     0000FF80  __HRAM                             
     0000FFFF  _IE_REG                            

ASxxxx Linker V03.00/V05.40 + sdld,  page 5.
Hexadecimal  [32-Bits]

Area                                    Addr        Size        Decimal Bytes (Attributes)
--------------------------------        ----        ----        ------- ----- ------------
_CODE                               00000200    000009BB =        2491. bytes (REL,CON)

      Value  Global                              Global Defined In Module
      -----  --------------------------------   ------------------------
     00000200  A$lcc281200$135                    main
     00000200  C$main.c$159$0_0$168               main
     00000200  C$main.c$161$1_0$168               main
     00000200  G$sfx_1$0$0                        main
     00000200  _sfx_1                             main
     00000202  A$lcc281200$136                    main
     00000204  A$lcc281200$140                    main
     00000204  C$main.c$162$1_0$168               main
     00000206  A$lcc281200$141                    main
     00000208  A$lcc281200$145                    main
     00000208  C$main.c$163$1_0$168               main
     0000020A  A$lcc281200$146                    main
     0000020C  A$lcc281200$150                    main
     0000020C  C$main.c$164$1_0$168               main
     0000020E  A$lcc281200$151                    main
     00000210  A$lcc281200$155                    main
     00000210  C$main.c$165$1_0$168               main
     00000212  A$lcc281200$156                    main
     00000214  A$lcc281200$164                    main
     00000214  C$main.c$166$1_0$168               main
     00000214  XG$sfx_1$0$0                       main
     00000215  G$white_tile$0_0$0                 main
     00000215  _white_tile                        main
     00000225  G$MilTable128$0_0$0                main
     00000225  _MilTable128                       main
     000003A5  A$lcc281200$453                    main
     000003A5  C$main.c$168$1_0$170               main
     000003A5  C$main.c$170$1_0$170               main
     000003A5  G$sfx_2$0$0                        main
     000003A5  _sfx_2                             main
     000003A7  A$lcc281200$454                    main
     000003A9  A$lcc281200$458                    main
     000003A9  C$main.c$171$1_0$170               main
     000003AB  A$lcc281200$459                    main
     000003AD  A$lcc281200$463                    main
     000003AD  C$main.c$172$1_0$170               main
     000003AF  A$lcc281200$464                    main
     000003B1  A$lcc281200$468                    main
     000003B1  C$main.c$173$1_0$170               main
     000003B3  A$lcc281200$469                    main
     000003B5  A$lcc281200$473                    main
     000003B5  C$main.c$174$1_0$170               main
     000003B7  A$lcc281200$474                    main
     000003B9  A$lcc281200$482                    main
     000003B9  C$main.c$175$1_0$170               main
     000003B9  XG$sfx_2$0$0                       main
     000003BA  A$lcc281200$495                    main
     000003BA  C$main.c$177$1_0$172               main
     000003BA  C$main.c$179$1_0$172               main
     000003BA  G$sfx_4$0$0                        main
ASxxxx Linker V03.00/V05.40 + sdld,  page 6.
Hexadecimal  [32-Bits]

Area                                    Addr        Size        Decimal Bytes (Attributes)
--------------------------------        ----        ----        ------- ----- ------------
_CODE                               00000200    000009BB =        2491. bytes (REL,CON)

      Value  Global                              Global Defined In Module
      -----  --------------------------------   ------------------------
     000003BA  _sfx_4                             main
     000003BC  A$lcc281200$496                    main
     000003BE  A$lcc281200$500                    main
     000003BE  C$main.c$180$1_0$172               main
     000003C0  A$lcc281200$501                    main
     000003C2  A$lcc281200$505                    main
     000003C2  C$main.c$181$1_0$172               main
     000003C4  A$lcc281200$506                    main
     000003C6  A$lcc281200$510                    main
     000003C6  C$main.c$182$1_0$172               main
     000003C8  A$lcc281200$511                    main
     000003CA  A$lcc281200$515                    main
     000003CA  C$main.c$183$1_0$172               main
     000003CC  A$lcc281200$516                    main
     000003CE  A$lcc281200$524                    main
     000003CE  C$main.c$184$1_0$172               main
     000003CE  XG$sfx_4$0$0                       main
     000003CF  A$lcc281200$537                    main
     000003CF  C$main.c$190$1_0$174               main
     000003CF  C$main.c$200$1_0$174               main
     000003CF  G$set_cpu$0$0                      main
     000003CF  _set_cpu                           main
     000003D0  A$lcc281200$541                    main
     000003D0  C$main.c$193$2_0$175               main
     000003D3  A$lcc281200$542                    main
     000003D5  A$lcc281200$543                    main
     000003D7  A$lcc281200$544                    main
     000003DA  A$lcc281200$545                    main
     000003DC  A$lcc281200$550                    main
     000003DC  C$main.c$194$2_0$175               main
     000003DF  A$lcc281200$551                    main
     000003E1  A$lcc281200$552                    main
     000003E3  A$lcc281200$556                    main
     000003E3  C$main.c$195$3_0$176               main
     000003E6  A$lcc281200$560                    main
     000003E6  C$main.c$196$3_0$176               main
     000003E9  A$lcc281200$561                    main
     000003EB  A$lcc281200$565                    main
     000003EB  C$main.c$198$3_0$176               main
     000003EE  A$lcc281200$567                    main
     000003EF  A$lcc281200$575                    main
     000003EF  C$main.c$202$2_0$174               main
     000003EF  XG$set_cpu$0$0                     main
     000003F0  A$lcc281200$588                    main
     000003F0  C$main.c$204$2_0$179               main
     000003F0  C$main.c$206$3_0$180               main
     000003F0  G$clear_sprite_tiles$0$0           main
     000003F0  _clear_sprite_tiles                main
     000003F2  A$lcc281200$590                    main
     000003F3  A$lcc281200$591                    main
     000003F5  A$lcc281200$592                    main
ASxxxx Linker V03.00/V05.40 + sdld,  page 7.
Hexadecimal  [32-Bits]

Area                                    Addr        Size        Decimal Bytes (Attributes)
--------------------------------        ----        ----        ------- ----- ------------
_CODE                               00000200    000009BB =        2491. bytes (REL,CON)

      Value  Global                              Global Defined In Module
      -----  --------------------------------   ------------------------
     000003F6  A$lcc281200$596                    main
     000003F6  C$main.c$207$3_0$180               main
     000003F9  A$lcc281200$597                    main
     000003FA  A$lcc281200$598                    main
     000003FC  A$lcc281200$599                    main
     000003FD  A$lcc281200$600                    main
     000003FE  A$lcc281200$601                    main
     000003FF  A$lcc281200$602                    main
     00000400  A$lcc281200$603                    main
     00000403  A$lcc281200$604                    main
     00000405  A$lcc281200$608                    main
     00000405  C$main.c$206$2_0$179               main
     00000406  A$lcc281200$616                    main
     00000406  C$main.c$210$2_0$179               main
     00000406  XG$clear_sprite_tiles$0$0          main
     00000408  A$lcc281200$629                    main
     00000408  C$main.c$212$2_0$182               main
     00000408  C$main.c$214$1_0$182               main
     00000408  G$init_system$0$0                  main
     00000408  _init_system                       main
     0000040B  A$lcc281200$633                    main
     0000040B  C$main.c$216$1_0$182               main
     0000040E  A$lcc281200$637                    main
     0000040E  C$main.c$217$1_0$182               main
     0000040F  A$lcc281200$638                    main
     00000410  A$lcc281200$639                    main
     00000411  A$lcc281200$640                    main
     00000414  A$lcc281200$641                    main
     00000415  A$lcc281200$645                    main
     00000415  C$main.c$219$1_0$182               main
     00000417  A$lcc281200$646                    main
     0000041A  A$lcc281200$650                    main
     0000041A  C$main.c$221$1_0$182               main
     0000041C  A$lcc281200$651                    main
     0000041E  A$lcc281200$652                    main
     00000420  A$lcc281200$656                    main
     00000420  C$main.c$222$1_0$182               main
     00000422  A$lcc281200$657                    main
     00000424  A$lcc281200$658                    main
     00000426  A$lcc281200$662                    main
     00000426  C$main.c$224$1_0$182               main
     00000428  A$lcc281200$663                    main
     0000042A  A$lcc281200$664                    main
     0000042C  A$lcc281200$665                    main
     0000042E  A$lcc281200$666                    main
     00000430  A$lcc281200$667                    main
     00000432  A$lcc281200$671                    main
     00000432  C$main.c$225$1_0$182               main
     00000434  A$lcc281200$672                    main
     00000436  A$lcc281200$673                    main
     00000438  A$lcc281200$681                    main
ASxxxx Linker V03.00/V05.40 + sdld,  page 8.
Hexadecimal  [32-Bits]

Area                                    Addr        Size        Decimal Bytes (Attributes)
--------------------------------        ----        ----        ------- ----- ------------
_CODE                               00000200    000009BB =        2491. bytes (REL,CON)

      Value  Global                              Global Defined In Module
      -----  --------------------------------   ------------------------
     00000438  C$main.c$227$1_0$182               main
     00000438  XG$init_system$0$0                 main
     00000439  A$lcc281200$694                    main
     00000439  C$main.c$233$1_0$184               main
     00000439  C$main.c$241$1_0$184               main
     00000439  G$set_timer_reg_stopwatch$0$0      main
     00000439  _set_timer_reg_stopwatch           main
     0000043A  A$lcc281200$698                    main
     0000043A  C$main.c$236$2_0$185               main
     0000043D  A$lcc281200$699                    main
     0000043F  A$lcc281200$700                    main
     00000441  A$lcc281200$704                    main
     00000441  C$main.c$237$3_0$186               main
     00000443  A$lcc281200$705                    main
     00000445  A$lcc281200$706                    main
     00000447  A$lcc281200$711                    main
     00000447  C$main.c$239$3_0$187               main
     00000449  A$lcc281200$712                    main
     0000044B  A$lcc281200$714                    main
     0000044C  A$lcc281200$722                    main
     0000044C  C$main.c$243$2_0$184               main
     0000044C  XG$set_timer_reg_stopwatch$0$0     main
     0000044D  A$lcc281200$735                    main
     0000044D  C$main.c$245$2_0$189               main
     0000044D  C$main.c$247$1_0$189               main
     0000044D  G$stopwatch_timer_isr$0$0          main
     0000044D  _stopwatch_timer_isr               main
     00000450  A$lcc281200$736                    main
     00000452  A$lcc281200$737                    main
     00000453  A$lcc281200$741                    main
     00000453  C$main.c$248$2_0$190               main
     00000456  A$lcc281200$742                    main
     00000457  A$lcc281200$743                    main
     00000458  A$lcc281200$744                    main
     0000045A  A$lcc281200$745                    main
     0000045B  A$lcc281200$749                    main
     0000045B  C$main.c$250$2_0$190               main
     0000045C  A$lcc281200$750                    main
     0000045D  A$lcc281200$751                    main
     0000045E  A$lcc281200$755                    main
     0000045E  C$main.c$269$3_0$191               main
     00000461  A$lcc281200$756                    main
     00000463  A$lcc281200$757                    main
     00000464  A$lcc281200$758                    main
     00000467  A$lcc281200$762                    main
     00000467  C$main.c$271$3_0$191               main
     0000046A  A$lcc281200$763                    main
     0000046C  A$lcc281200$767                    main
     0000046C  C$main.c$273$3_0$191               main
     0000046F  A$lcc281200$768                    main
     00000470  A$lcc281200$769                    main
ASxxxx Linker V03.00/V05.40 + sdld,  page 9.
Hexadecimal  [32-Bits]

Area                                    Addr        Size        Decimal Bytes (Attributes)
--------------------------------        ----        ----        ------- ----- ------------
_CODE                               00000200    000009BB =        2491. bytes (REL,CON)

      Value  Global                              Global Defined In Module
      -----  --------------------------------   ------------------------
     00000472  A$lcc281200$770                    main
     00000473  A$lcc281200$774                    main
     00000473  C$main.c$274$4_0$192               main
     00000475  A$lcc281200$778                    main
     00000475  C$main.c$276$4_0$192               main
     00000478  A$lcc281200$779                    main
     0000047A  A$lcc281200$780                    main
     0000047B  A$lcc281200$781                    main
     0000047E  A$lcc281200$789                    main
     0000047E  C$main.c$281$1_0$189               main
     0000047E  XG$stopwatch_timer_isr$0$0         main
     0000047F  A$lcc281200$802                    main
     0000047F  C$main.c$283$1_0$194               main
     0000047F  C$main.c$287$1_0$194               main
     0000047F  G$set_timer_isr_stopwatch$0$0      main
     0000047F  _set_timer_isr_stopwatch           main
     00000480  A$lcc281200$806                    main
     00000480  C$main.c$286$2_0$195               main
     00000483  A$lcc281200$807                    main
     00000486  A$lcc281200$808                    main
     00000487  A$lcc281200$816                    main
     00000487  C$main.c$289$2_0$194               main
     00000487  XG$set_timer_isr_stopwatch$0$0     main
     00000488  A$lcc281200$829                    main
     00000488  C$main.c$291$2_0$197               main
     00000488  C$main.c$295$1_0$197               main
     00000488  G$clear_timer_isr_stopwatch$0$0    main
     00000488  _clear_timer_isr_stopwatch         main
     00000489  A$lcc281200$833                    main
     00000489  C$main.c$294$2_0$198               main
     0000048C  A$lcc281200$834                    main
     0000048F  A$lcc281200$835                    main
     00000490  A$lcc281200$843                    main
     00000490  C$main.c$297$2_0$197               main
     00000490  XG$clear_timer_isr_stopwatch$0$0   main
     00000491  A$lcc281200$856                    main
     00000491  C$main.c$303$2_0$200               main
     00000491  C$main.c$305$1_0$200               main
     00000491  G$init_scene$0$0                   main
     00000491  _init_scene                        main
     00000494  A$lcc281200$857                    main
     00000495  A$lcc281200$858                    main
     00000498  A$lcc281200$859                    main
     00000499  A$lcc281200$863                    main
     00000499  C$main.c$306$1_0$200               main
     0000049C  A$lcc281200$864                    main
     0000049D  A$lcc281200$865                    main
     000004A0  A$lcc281200$866                    main
     000004A1  A$lcc281200$870                    main
     000004A1  C$main.c$307$1_0$200               main
     000004A4  A$lcc281200$871                    main
ASxxxx Linker V03.00/V05.40 + sdld,  page 10.
Hexadecimal  [32-Bits]

Area                                    Addr        Size        Decimal Bytes (Attributes)
--------------------------------        ----        ----        ------- ----- ------------
_CODE                               00000200    000009BB =        2491. bytes (REL,CON)

      Value  Global                              Global Defined In Module
      -----  --------------------------------   ------------------------
     000004A5  A$lcc281200$872                    main
     000004A8  A$lcc281200$873                    main
     000004A9  A$lcc281200$877                    main
     000004A9  C$main.c$308$1_0$200               main
     000004AC  A$lcc281200$878                    main
     000004AD  A$lcc281200$879                    main
     000004B0  A$lcc281200$880                    main
     000004B1  A$lcc281200$884                    main
     000004B1  C$main.c$310$1_0$200               main
     000004B4  A$lcc281200$885                    main
     000004B5  A$lcc281200$886                    main
     000004B8  A$lcc281200$887                    main
     000004B9  A$lcc281200$891                    main
     000004B9  C$main.c$311$1_0$200               main
     000004BC  A$lcc281200$892                    main
     000004BD  A$lcc281200$893                    main
     000004C0  A$lcc281200$894                    main
     000004C1  A$lcc281200$898                    main
     000004C1  C$main.c$313$1_0$200               main
     000004C4  A$lcc281200$899                    main
     000004C5  A$lcc281200$900                    main
     000004C8  A$lcc281200$901                    main
     000004C9  A$lcc281200$905                    main
     000004C9  C$main.c$314$1_0$200               main
     000004CC  A$lcc281200$906                    main
     000004CD  A$lcc281200$907                    main
     000004D0  A$lcc281200$908                    main
     000004D1  A$lcc281200$912                    main
     000004D1  C$main.c$315$1_0$200               main
     000004D4  A$lcc281200$913                    main
     000004D5  A$lcc281200$914                    main
     000004D8  A$lcc281200$915                    main
     000004D9  A$lcc281200$919                    main
     000004D9  C$main.c$316$1_0$200               main
     000004DC  A$lcc281200$920                    main
     000004DD  A$lcc281200$921                    main
     000004E0  A$lcc281200$922                    main
     000004E1  A$lcc281200$926                    main
     000004E1  C$main.c$317$1_0$200               main
     000004E4  A$lcc281200$927                    main
     000004E5  A$lcc281200$928                    main
     000004E8  A$lcc281200$929                    main
     000004E9  A$lcc281200$933                    main
     000004E9  C$main.c$318$1_0$200               main
     000004EC  A$lcc281200$934                    main
     000004ED  A$lcc281200$935                    main
     000004F0  A$lcc281200$936                    main
     000004F1  A$lcc281200$944                    main
     000004F1  C$main.c$320$1_0$200               main
     000004F1  XG$init_scene$0$0                  main
     000004F2  Fmain$__str_100$0_0$0              main
ASxxxx Linker V03.00/V05.40 + sdld,  page 11.
Hexadecimal  [32-Bits]

Area                                    Addr        Size        Decimal Bytes (Attributes)
--------------------------------        ----        ----        ------- ----- ------------
_CODE                               00000200    000009BB =        2491. bytes (REL,CON)

      Value  Global                              Global Defined In Module
      -----  --------------------------------   ------------------------
     00000501  Fmain$__str_101$0_0$0              main
     00000514  Fmain$__str_102$0_0$0              main
     0000051D  Fmain$__str_103$0_0$0              main
     00000528  Fmain$__str_104$0_0$0              main
     00000533  A$lcc281200$977                    main
     00000533  C$main.c$326$1_0$202               main
     00000533  C$main.c$328$1_0$202               main
     00000533  G$reset_stopwatch$0$0              main
     00000533  _reset_stopwatch                   main
     00000536  A$lcc281200$981                    main
     00000536  C$main.c$330$1_0$202               main
     00000539  A$lcc281200$982                    main
     0000053B  A$lcc281200$986                    main
     0000053B  C$main.c$332$1_0$202               main
     0000053E  A$lcc281200$987                    main
     00000540  A$lcc281200$991                    main
     00000540  C$main.c$333$1_0$202               main
     00000543  A$lcc281200$992                    main
     00000545  A$lcc281200$996                    main
     00000545  C$main.c$334$1_0$202               main
     00000548  A$lcc281200$997                    main
     0000054A  A$lcc281200$1001                   main
     0000054A  C$main.c$336$1_0$202               main
     0000054D  A$lcc281200$1002                   main
     0000054E  A$lcc281200$1003                   main
     00000551  A$lcc281200$1004                   main
     00000552  A$lcc281200$1008                   main
     00000552  C$main.c$337$1_0$202               main
     00000555  A$lcc281200$1009                   main
     00000556  A$lcc281200$1010                   main
     00000559  A$lcc281200$1011                   main
     0000055A  A$lcc281200$1019                   main
     0000055A  C$main.c$339$1_0$202               main
     0000055A  XG$reset_stopwatch$0$0             main
     0000055B  Fmain$__str_105$0_0$0              main
     00000564  A$lcc281200$1036                   main
     00000564  C$main.c$341$1_0$204               main
     00000564  C$main.c$348$1_0$204               main
     00000564  G$pause_stopwatch$0$0              main
     00000564  _pause_stopwatch                   main
     00000565  A$lcc281200$1040                   main
     00000565  C$main.c$346$2_0$205               main
     00000566  A$lcc281200$1041                   main
     00000568  A$lcc281200$1045                   main
     00000568  C$main.c$347$2_0$205               main
     0000056B  A$lcc281200$1046                   main
     0000056D  A$lcc281200$1047                   main
     0000056E  A$lcc281200$1051                   main
     0000056E  C$main.c$350$1_0$204               main
     00000570  A$lcc281200$1052                   main
     00000572  A$lcc281200$1056                   main
ASxxxx Linker V03.00/V05.40 + sdld,  page 12.
Hexadecimal  [32-Bits]

Area                                    Addr        Size        Decimal Bytes (Attributes)
--------------------------------        ----        ----        ------- ----- ------------
_CODE                               00000200    000009BB =        2491. bytes (REL,CON)

      Value  Global                              Global Defined In Module
      -----  --------------------------------   ------------------------
     00000572  C$main.c$351$1_0$204               main
     00000575  A$lcc281200$1060                   main
     00000575  C$main.c$353$1_0$204               main
     00000578  A$lcc281200$1061                   main
     00000579  A$lcc281200$1062                   main
     0000057C  A$lcc281200$1063                   main
     0000057D  A$lcc281200$1067                   main
     0000057D  C$main.c$354$1_0$204               main
     00000580  A$lcc281200$1068                   main
     00000581  A$lcc281200$1069                   main
     00000584  A$lcc281200$1070                   main
     00000585  A$lcc281200$1074                   main
     00000585  C$main.c$355$1_0$204               main
     00000588  A$lcc281200$1075                   main
     00000589  A$lcc281200$1076                   main
     0000058C  A$lcc281200$1077                   main
     0000058D  A$lcc281200$1081                   main
     0000058D  C$main.c$356$1_0$204               main
     00000590  A$lcc281200$1082                   main
     00000591  A$lcc281200$1083                   main
     00000594  A$lcc281200$1084                   main
     00000595  A$lcc281200$1092                   main
     00000595  C$main.c$358$1_0$204               main
     00000595  XG$pause_stopwatch$0$0             main
     00000596  Fmain$__str_106$0_0$0              main
     0000059C  Fmain$__str_107$0_0$0              main
     000005A7  A$lcc281200$1113                   main
     000005A7  C$main.c$360$1_0$207               main
     000005A7  C$main.c$365$1_0$207               main
     000005A7  G$start_stopwatch$0$0              main
     000005A7  _start_stopwatch                   main
     000005A8  A$lcc281200$1117                   main
     000005A8  C$main.c$363$2_0$208               main
     000005AA  A$lcc281200$1118                   main
     000005AC  A$lcc281200$1122                   main
     000005AC  C$main.c$364$2_0$208               main
     000005AF  A$lcc281200$1123                   main
     000005B1  A$lcc281200$1124                   main
     000005B2  A$lcc281200$1128                   main
     000005B2  C$main.c$367$1_0$207               main
     000005B4  A$lcc281200$1129                   main
     000005B6  A$lcc281200$1133                   main
     000005B6  C$main.c$368$1_0$207               main
     000005B9  A$lcc281200$1137                   main
     000005B9  C$main.c$370$1_0$207               main
     000005BC  A$lcc281200$1138                   main
     000005BD  A$lcc281200$1139                   main
     000005C0  A$lcc281200$1140                   main
     000005C1  A$lcc281200$1144                   main
     000005C1  C$main.c$371$1_0$207               main
     000005C4  A$lcc281200$1145                   main
ASxxxx Linker V03.00/V05.40 + sdld,  page 13.
Hexadecimal  [32-Bits]

Area                                    Addr        Size        Decimal Bytes (Attributes)
--------------------------------        ----        ----        ------- ----- ------------
_CODE                               00000200    000009BB =        2491. bytes (REL,CON)

      Value  Global                              Global Defined In Module
      -----  --------------------------------   ------------------------
     000005C5  A$lcc281200$1146                   main
     000005C8  A$lcc281200$1147                   main
     000005C9  A$lcc281200$1151                   main
     000005C9  C$main.c$372$1_0$207               main
     000005CC  A$lcc281200$1152                   main
     000005CD  A$lcc281200$1153                   main
     000005D0  A$lcc281200$1154                   main
     000005D1  A$lcc281200$1158                   main
     000005D1  C$main.c$373$1_0$207               main
     000005D4  A$lcc281200$1159                   main
     000005D5  A$lcc281200$1160                   main
     000005D8  A$lcc281200$1161                   main
     000005D9  A$lcc281200$1169                   main
     000005D9  C$main.c$375$1_0$207               main
     000005D9  XG$start_stopwatch$0$0             main
     000005DA  Fmain$__str_108$0_0$0              main
     000005E0  Fmain$__str_109$0_0$0              main
     000005EB  A$lcc281200$1190                   main
     000005EB  C$main.c$377$1_0$210               main
     000005EB  C$main.c$380$1_0$210               main
     000005EB  G$handle_inputs$0$0                main
     000005EB  _handle_inputs                     main
     000005EE  A$lcc281200$1191                   main
     000005EF  A$lcc281200$1195                   main
     000005EF  C$main.c$382$1_0$210               main
     000005F1  A$lcc281200$1196                   main
     000005F3  A$lcc281200$1197                   main
     000005F6  A$lcc281200$1198                   main
     000005F8  A$lcc281200$1199                   main
     000005FA  A$lcc281200$1203                   main
     000005FA  C$main.c$383$2_0$211               main
     000005FD  A$lcc281200$1204                   main
     000005FF  A$lcc281200$1205                   main
     00000601  A$lcc281200$1206                   main
     00000602  A$lcc281200$1207                   main
     00000605  A$lcc281200$1208                   main
     00000606  A$lcc281200$1209                   main
     00000608  A$lcc281200$1214                   main
     00000608  C$main.c$384$2_0$211               main
     00000609  A$lcc281200$1215                   main
     0000060C  A$lcc281200$1216                   main
     0000060D  A$lcc281200$1221                   main
     0000060D  C$main.c$386$1_0$210               main
     0000060F  A$lcc281200$1222                   main
     00000611  A$lcc281200$1223                   main
     00000614  A$lcc281200$1224                   main
     00000616  A$lcc281200$1225                   main
     00000618  A$lcc281200$1226                   main
     0000061B  A$lcc281200$1227                   main
     0000061D  A$lcc281200$1228                   main
     0000061F  A$lcc281200$1232                   main
ASxxxx Linker V03.00/V05.40 + sdld,  page 14.
Hexadecimal  [32-Bits]

Area                                    Addr        Size        Decimal Bytes (Attributes)
--------------------------------        ----        ----        ------- ----- ------------
_CODE                               00000200    000009BB =        2491. bytes (REL,CON)

      Value  Global                              Global Defined In Module
      -----  --------------------------------   ------------------------
     0000061F  C$main.c$387$2_0$212               main
     00000620  A$lcc281200$1233                   main
     00000623  A$lcc281200$1234                   main
     00000624  A$lcc281200$1239                   main
     00000624  C$main.c$390$1_0$210               main
     00000627  A$lcc281200$1240                   main
     00000628  A$lcc281200$1248                   main
     00000628  C$main.c$392$1_0$210               main
     00000628  XG$handle_inputs$0$0               main
     00000629  A$lcc281200$1258                   main
     00000629  C$main.c$411$1_0$216               main
     00000629  G$handle_stopwatch$0$0             main
     00000629  _handle_stopwatch                  main
     0000062A  A$lcc281200$1259                   main
     0000062B  A$lcc281200$1263                   main
     0000062B  C$main.c$413$1_0$216               main
     0000062E  A$lcc281200$1264                   main
     00000630  A$lcc281200$1265                   main
     00000633  A$lcc281200$1267                   main
     00000636  A$lcc281200$1268                   main
     00000637  A$lcc281200$1269                   main
     0000063A  A$lcc281200$1270                   main
     0000063C  A$lcc281200$1271                   main
     0000063D  A$lcc281200$1273                   main
     00000640  A$lcc281200$1274                   main
     00000642  A$lcc281200$1275                   main
     00000644  A$lcc281200$1276                   main
     00000647  A$lcc281200$1277                   main
     00000648  A$lcc281200$1278                   main
     00000649  A$lcc281200$1279                   main
     0000064A  A$lcc281200$1280                   main
     0000064B  A$lcc281200$1281                   main
     0000064E  A$lcc281200$1283                   main
     00000651  A$lcc281200$1284                   main
     00000653  A$lcc281200$1285                   main
     00000656  A$lcc281200$1286                   main
     00000657  A$lcc281200$1287                   main
     00000658  A$lcc281200$1288                   main
     00000659  A$lcc281200$1289                   main
     0000065A  A$lcc281200$1290                   main
     0000065B  A$lcc281200$1291                   main
     0000065C  A$lcc281200$1292                   main
     0000065D  A$lcc281200$1293                   main
     00000660  A$lcc281200$1295                   main
     00000663  A$lcc281200$1296                   main
     00000665  A$lcc281200$1297                   main
     00000667  A$lcc281200$1298                   main
     0000066A  A$lcc281200$1299                   main
     0000066B  A$lcc281200$1300                   main
     0000066C  A$lcc281200$1301                   main
     0000066D  A$lcc281200$1302                   main
ASxxxx Linker V03.00/V05.40 + sdld,  page 15.
Hexadecimal  [32-Bits]

Area                                    Addr        Size        Decimal Bytes (Attributes)
--------------------------------        ----        ----        ------- ----- ------------
_CODE                               00000200    000009BB =        2491. bytes (REL,CON)

      Value  Global                              Global Defined In Module
      -----  --------------------------------   ------------------------
     0000066E  A$lcc281200$1303                   main
     0000066F  A$lcc281200$1304                   main
     00000670  A$lcc281200$1305                   main
     00000671  A$lcc281200$1306                   main
     00000672  A$lcc281200$1307                   main
     00000673  A$lcc281200$1308                   main
     00000676  A$lcc281200$1310                   main
     00000679  A$lcc281200$1311                   main
     0000067B  A$lcc281200$1312                   main
     0000067E  A$lcc281200$1313                   main
     0000067F  A$lcc281200$1314                   main
     00000680  A$lcc281200$1315                   main
     00000681  A$lcc281200$1316                   main
     00000682  A$lcc281200$1317                   main
     00000683  A$lcc281200$1318                   main
     00000686  A$lcc281200$1319                   main
     00000687  A$lcc281200$1320                   main
     00000688  A$lcc281200$1321                   main
     00000689  A$lcc281200$1322                   main
     0000068A  A$lcc281200$1323                   main
     0000068D  A$lcc281200$1325                   main
     00000690  A$lcc281200$1326                   main
     00000691  A$lcc281200$1327                   main
     00000693  A$lcc281200$1328                   main
     00000694  A$lcc281200$1329                   main
     00000695  A$lcc281200$1330                   main
     00000696  A$lcc281200$1331                   main
     00000697  A$lcc281200$1332                   main
     0000069A  A$lcc281200$1333                   main
     0000069B  A$lcc281200$1334                   main
     0000069C  A$lcc281200$1335                   main
     0000069E  A$lcc281200$1336                   main
     000006A1  A$lcc281200$1337                   main
     000006A2  A$lcc281200$1338                   main
     000006A3  A$lcc281200$1339                   main
     000006A4  A$lcc281200$1340                   main
     000006A5  A$lcc281200$1341                   main
     000006A6  A$lcc281200$1342                   main
     000006A9  A$lcc281200$1343                   main
     000006AA  A$lcc281200$1344                   main
     000006AB  A$lcc281200$1345                   main
     000006AC  A$lcc281200$1346                   main
     000006AD  A$lcc281200$1347                   main
     000006B0  A$lcc281200$1349                   main
     000006B3  A$lcc281200$1350                   main
     000006B4  A$lcc281200$1351                   main
     000006B6  A$lcc281200$1352                   main
     000006B7  A$lcc281200$1353                   main
     000006B8  A$lcc281200$1354                   main
     000006B9  A$lcc281200$1355                   main
     000006BA  A$lcc281200$1356                   main
ASxxxx Linker V03.00/V05.40 + sdld,  page 16.
Hexadecimal  [32-Bits]

Area                                    Addr        Size        Decimal Bytes (Attributes)
--------------------------------        ----        ----        ------- ----- ------------
_CODE                               00000200    000009BB =        2491. bytes (REL,CON)

      Value  Global                              Global Defined In Module
      -----  --------------------------------   ------------------------
     000006BD  A$lcc281200$1357                   main
     000006BE  A$lcc281200$1358                   main
     000006BF  A$lcc281200$1359                   main
     000006C0  A$lcc281200$1360                   main
     000006C2  A$lcc281200$1361                   main
     000006C5  A$lcc281200$1362                   main
     000006C6  A$lcc281200$1363                   main
     000006C7  A$lcc281200$1364                   main
     000006C8  A$lcc281200$1365                   main
     000006C9  A$lcc281200$1366                   main
     000006CA  A$lcc281200$1367                   main
     000006CD  A$lcc281200$1368                   main
     000006CE  A$lcc281200$1369                   main
     000006CF  A$lcc281200$1370                   main
     000006D0  A$lcc281200$1371                   main
     000006D1  A$lcc281200$1372                   main
     000006D4  A$lcc281200$1376                   main
     000006D4  C$main.c$416$2_0$217               main
     000006D7  A$lcc281200$1377                   main
     000006D9  A$lcc281200$1378                   main
     000006DB  A$lcc281200$1382                   main
     000006DB  C$main.c$417$3_0$218               main
     000006DD  A$lcc281200$1383                   main
     000006DF  A$lcc281200$1387                   main
     000006DF  C$main.c$418$3_0$218               main
     000006E2  A$lcc281200$1391                   main
     000006E2  C$main.c$419$3_0$218               main
     000006E5  A$lcc281200$1392                   main
     000006E7  A$lcc281200$1397                   main
     000006E8  A$lcc281200$1398                   main
     000006E9  A$lcc281200$1403                   main
     000006E9  C$main.c$423$1_0$216               main
     000006E9  XG$handle_stopwatch$0$0            main
     000006EA  A$lcc281200$1416                   main
     000006EA  C$main.c$429$1_0$223               main
     000006EA  C$main.c$431$1_0$223               main
     000006EA  G$init_game$0$0                    main
     000006EA  _init_game                         main
     000006ED  A$lcc281200$1420                   main
     000006ED  C$main.c$432$1_0$223               main
     000006F0  A$lcc281200$1421                   main
     000006F1  A$lcc281200$1422                   main
     000006F4  A$lcc281200$1423                   main
     000006F5  A$lcc281200$1424                   main
     000006F8  A$lcc281200$1425                   main
     000006F9  A$lcc281200$1426                   main
     000006FA  A$lcc281200$1427                   main
     000006FB  A$lcc281200$1431                   main
     000006FB  C$main.c$434$1_0$223               main
     000006FE  A$lcc281200$1435                   main
     000006FE  C$main.c$435$1_0$223               main
ASxxxx Linker V03.00/V05.40 + sdld,  page 17.
Hexadecimal  [32-Bits]

Area                                    Addr        Size        Decimal Bytes (Attributes)
--------------------------------        ----        ----        ------- ----- ------------
_CODE                               00000200    000009BB =        2491. bytes (REL,CON)

      Value  Global                              Global Defined In Module
      -----  --------------------------------   ------------------------
     00000701  A$lcc281200$1446                   main
     00000701  C$main.c$437$1_0$223               main
     00000701  C$main.c$439$1_0$223               main
     00000701  XG$init_game$0$0                   main
     00000704  A$lcc281200$1459                   main
     00000704  C$main.c$445$1_0$225               main
     00000704  C$main.c$447$1_0$225               main
     00000704  G$main$0$0                         main
     00000704  _main                              main
     00000707  A$lcc281200$1463                   main
     00000707  C$main.c$448$1_0$225               main
     0000070A  A$lcc281200$1471                   main
     0000070A  C$main.c$450$1_0$225               main
     0000070A  C$main.c$451$2_0$226               main
     0000070D  A$lcc281200$1475                   main
     0000070D  C$main.c$452$2_0$226               main
     00000710  A$lcc281200$1479                   main
     00000710  C$main.c$453$2_0$226               main
     00000713  A$lcc281200$1487                   main
     00000713  C$main.c$456$1_0$225               main
     00000713  XG$main$0$0                        main
     00000715  _set_vram_byte                     
     0000071E  _set_win_tile_xy                   
     00000727  _set_bkg_tile_xy                   
     00000756  _printf                            printf
     0000076B  _cpu_slow                          CGB
     00000786  _cpu_fast                          CGB
     0000078D  _get_win_xy_addr                   
     00000795  _get_bkg_xy_addr                   
     000007B4  _cgb_compatibility                 CGB
     000007B4  _set_default_palette               CGB
     000007CD  _set_sprite_palette                CGB
     000007D2  _set_bkg_palette                   CGB
     000007D5  .set_palette                       CGB
     000007F4  _set_sprite_palette_entry          CGB
     000007F9  _set_bkg_palette_entry             CGB
     000007FC  .set_palette_entry                 CGB
     0000084F  ___printf                          sprintf
     00000B9A  _sprintf                           sprintf

ASxxxx Linker V03.00/V05.40 + sdld,  page 18.
Hexadecimal  [32-Bits]

Area                                    Addr        Size        Decimal Bytes (Attributes)
--------------------------------        ----        ----        ------- ----- ------------
_HEADER0                            00000000    00000001 =           1. bytes (ABS,CON)

      Value  Global                              Global Defined In Module
      -----  --------------------------------   ------------------------
     00000020  .call_hl                           Runtime

ASxxxx Linker V03.00/V05.40 + sdld,  page 19.
Hexadecimal  [32-Bits]

Area                                    Addr        Size        Decimal Bytes (Attributes)
--------------------------------        ----        ----        ------- ----- ------------
_HEADER1                            00000000    00000005 =           5. bytes (ABS,CON)

      Value  Global                              Global Defined In Module
      -----  --------------------------------   ------------------------
     00000028  .MemsetSmall                       Runtime

ASxxxx Linker V03.00/V05.40 + sdld,  page 20.
Hexadecimal  [32-Bits]

Area                                    Addr        Size        Decimal Bytes (Attributes)
--------------------------------        ----        ----        ------- ----- ------------
_HEADER2                            00000000    00000007 =           7. bytes (ABS,CON)

      Value  Global                              Global Defined In Module
      -----  --------------------------------   ------------------------
     00000030  .MemcpySmall                       Runtime

ASxxxx Linker V03.00/V05.40 + sdld,  page 21.
Hexadecimal  [32-Bits]

Area                                    Addr        Size        Decimal Bytes (Attributes)
--------------------------------        ----        ----        ------- ----- ------------
_HEADER3                            00000000    00000008 =           8. bytes (ABS,CON)

      Value  Global                              Global Defined In Module
      -----  --------------------------------   ------------------------
ASxxxx Linker V03.00/V05.40 + sdld,  page 22.
Hexadecimal  [32-Bits]

Area                                    Addr        Size        Decimal Bytes (Attributes)
--------------------------------        ----        ----        ------- ----- ------------
_HEADER4                            00000000    00000060 =          96. bytes (ABS,CON)

      Value  Global                              Global Defined In Module
      -----  --------------------------------   ------------------------
     00000080  .int                               Runtime
     0000008F  _wait_int_handler                  Runtime
     0000009C  __standard_VBL_handler             Runtime
     000000AB  _refresh_OAM                       Runtime
     000000CC  _set_interrupts                    Runtime

ASxxxx Linker V03.00/V05.40 + sdld,  page 23.
Hexadecimal  [32-Bits]

Area                                    Addr        Size        Decimal Bytes (Attributes)
--------------------------------        ----        ----        ------- ----- ------------
_HEADER5                            00000000    00000001 =           1. bytes (ABS,CON)

      Value  Global                              Global Defined In Module
      -----  --------------------------------   ------------------------
ASxxxx Linker V03.00/V05.40 + sdld,  page 24.
Hexadecimal  [32-Bits]

Area                                    Addr        Size        Decimal Bytes (Attributes)
--------------------------------        ----        ----        ------- ----- ------------
_HEADER6                            00000000    00000002 =           2. bytes (ABS,CON)

      Value  Global                              Global Defined In Module
      -----  --------------------------------   ------------------------
ASxxxx Linker V03.00/V05.40 + sdld,  page 25.
Hexadecimal  [32-Bits]

Area                                    Addr        Size        Decimal Bytes (Attributes)
--------------------------------        ----        ----        ------- ----- ------------
_HEADER7                            00000000    00000030 =          48. bytes (ABS,CON)

      Value  Global                              Global Defined In Module
      -----  --------------------------------   ------------------------
ASxxxx Linker V03.00/V05.40 + sdld,  page 26.
Hexadecimal  [32-Bits]

Area                                    Addr        Size        Decimal Bytes (Attributes)
--------------------------------        ----        ----        ------- ----- ------------
_HEADER8                            00000000    00000006 =           6. bytes (ABS,CON)

      Value  Global                              Global Defined In Module
      -----  --------------------------------   ------------------------
ASxxxx Linker V03.00/V05.40 + sdld,  page 27.
Hexadecimal  [32-Bits]

Area                                    Addr        Size        Decimal Bytes (Attributes)
--------------------------------        ----        ----        ------- ----- ------------
_HEADER9                            00000000    00000003 =           3. bytes (ABS,CON)

      Value  Global                              Global Defined In Module
      -----  --------------------------------   ------------------------
ASxxxx Linker V03.00/V05.40 + sdld,  page 28.
Hexadecimal  [32-Bits]

Area                                    Addr        Size        Decimal Bytes (Attributes)
--------------------------------        ----        ----        ------- ----- ------------
_HEADERa                            00000000    00000001 =           1. bytes (ABS,CON)

      Value  Global                              Global Defined In Module
      -----  --------------------------------   ------------------------
ASxxxx Linker V03.00/V05.40 + sdld,  page 29.
Hexadecimal  [32-Bits]

Area                                    Addr        Size        Decimal Bytes (Attributes)
--------------------------------        ----        ----        ------- ----- ------------
_HEADERb                            00000000    00000001 =           1. bytes (ABS,CON)

      Value  Global                              Global Defined In Module
      -----  --------------------------------   ------------------------
ASxxxx Linker V03.00/V05.40 + sdld,  page 30.
Hexadecimal  [32-Bits]

Area                                    Addr        Size        Decimal Bytes (Attributes)
--------------------------------        ----        ----        ------- ----- ------------
_HEADERc                            00000000    00000001 =           1. bytes (ABS,CON)

      Value  Global                              Global Defined In Module
      -----  --------------------------------   ------------------------
ASxxxx Linker V03.00/V05.40 + sdld,  page 31.
Hexadecimal  [32-Bits]

Area                                    Addr        Size        Decimal Bytes (Attributes)
--------------------------------        ----        ----        ------- ----- ------------
_HEADERd                            00000000    00000002 =           2. bytes (ABS,CON)

      Value  Global                              Global Defined In Module
      -----  --------------------------------   ------------------------
ASxxxx Linker V03.00/V05.40 + sdld,  page 32.
Hexadecimal  [32-Bits]

Area                                    Addr        Size        Decimal Bytes (Attributes)
--------------------------------        ----        ----        ------- ----- ------------
_HEADERe                            00000000    00000001 =           1. bytes (ABS,CON)

      Value  Global                              Global Defined In Module
      -----  --------------------------------   ------------------------
ASxxxx Linker V03.00/V05.40 + sdld,  page 33.
Hexadecimal  [32-Bits]

Area                                    Addr        Size        Decimal Bytes (Attributes)
--------------------------------        ----        ----        ------- ----- ------------
_HEADERf                            00000000    00000001 =           1. bytes (ABS,CON)

      Value  Global                              Global Defined In Module
      -----  --------------------------------   ------------------------
ASxxxx Linker V03.00/V05.40 + sdld,  page 34.
Hexadecimal  [32-Bits]

Area                                    Addr        Size        Decimal Bytes (Attributes)
--------------------------------        ----        ----        ------- ----- ------------
_HEADER10                           00000000    00000002 =           2. bytes (ABS,CON)

      Value  Global                              Global Defined In Module
      -----  --------------------------------   ------------------------
ASxxxx Linker V03.00/V05.40 + sdld,  page 35.
Hexadecimal  [32-Bits]

Area                                    Addr        Size        Decimal Bytes (Attributes)
--------------------------------        ----        ----        ------- ----- ------------
_HEADER11                           00000000    000000AB =         171. bytes (ABS,CON)

      Value  Global                              Global Defined In Module
      -----  --------------------------------   ------------------------
     00000150  .reset                             Runtime
     00000150  _reset                             Runtime
     00000157  .code_start                        Runtime
     000001B9  _exit                              Runtime
     000001BD  .wait_vbl_done                     Runtime
     000001BD  _vsync                             Runtime
     000001BD  _wait_vbl_done                     Runtime
     000001CD  .remove_VBL                        Runtime
     000001CD  _remove_VBL                        Runtime
     000001D0  .remove_int                        Runtime
     000001ED  .add_VBL                           Runtime
     000001ED  _add_VBL                           Runtime
     000001F0  .add_int                           Runtime

ASxxxx Linker V03.00/V05.40 + sdld,  page 36.
Hexadecimal  [32-Bits]

Area                                    Addr        Size        Decimal Bytes (Attributes)
--------------------------------        ----        ----        ------- ----- ------------
_HOME                               00000BBB    00000C1E =        3102. bytes (REL,CON)

      Value  Global                              Global Defined In Module
      -----  --------------------------------   ------------------------
     00000BBB  .memset_simple                     Runtime
     00000BC4  .memcpy_simple                     Runtime
     00000BE1  .display_off                       Runtime
     00000BE1  _display_off                       Runtime
     00000BF9  _font_load_ibm                     font.ms
     00000C00  font_load                          font.ms
     00000C48  font_copy_current                  font.ms
     00000C7E  font_set                           font.ms
     00000C8B  .put_char                          font.ms
     00000CA3  .out_char                          font.ms
     00000CA9  .del_char                          font.ms
     00000CFF  _putchar                           font.ms
     00000D08  _setchar                           font.ms
     00000D11  _font_load                         font.ms
     00000D1F  _font_set                          font.ms
     00000D2E  _font_init                         font.ms
     00000D4D  .cls                               font.ms
     00000D4D  _cls                               font.ms
     00000D6F  _gotoxy                            font.ms
     00000D7A  _posx                              font.ms
     00000D8B  _posy                              font.ms
     00000DB3  .cr_curs                           font.ms
     00000DC8  .adv_curs                          font.ms
     00000E24  .tmode                             font.ms
     00000E41  .tmode_out                         font.ms
     00000E4A  _add_TIM                           
     00000E4D  _font_spect                        font_spect
     000011CF  _set_tile_data                     
     000011D4  _set_bkg_data                      
     000011D4  _set_win_data                      
     000011DC  _set_sprite_data                   
     0000120C  .add_TIM                           
     00001212  .remove_TIM                        
     00001212  _remove_TIM                        
     00001218  _init_win                          
     00001221  _init_bkg                          
     0000122A  _vmemset                           
     0000123B  .padup                             
     0000123B  _waitpadup                         
     0000124B  .jpad                              
     0000124B  _joypad                            
     00001273  _waitpad                           
     00001274  .wait_pad                          
     0000127B  _color                             
     0000127B  _set_1bpp_colors_ex                
     0000128A  .drawing_lcd                       
     000012A7  _font_ibm                          
     00001688  .add_LCD                           
     00001688  _add_LCD                           
     0000168E  .remove_LCD                        
ASxxxx Linker V03.00/V05.40 + sdld,  page 37.
Hexadecimal  [32-Bits]

Area                                    Addr        Size        Decimal Bytes (Attributes)
--------------------------------        ----        ----        ------- ----- ------------
_HOME                               00000BBB    00000C1E =        3102. bytes (REL,CON)

      Value  Global                              Global Defined In Module
      -----  --------------------------------   ------------------------
     0000168E  _remove_LCD                        
     00001694  .init_wtt                          
     0000169C  .init_btt                          
     000016AA  .init_tt                           
     000016AD  .init_vram                         
     000016D2  _set_bkg_1bpp_data                 
     000016D2  _set_win_1bpp_data                 
     000016DA  _set_sprite_1bpp_data              
     00001732  _uitoa                             itoa
     00001741  _itoa                              itoa
     00001750  .itoa                              itoa
     00001764  .utoa                              itoa
     000017D8  ___sdcc_call_hl                    call_hl
ASxxxx Linker V03.00/V05.40 + sdld,  page 38.
Hexadecimal  [32-Bits]

Area                                    Addr        Size        Decimal Bytes (Attributes)
--------------------------------        ----        ----        ------- ----- ------------
_INITIALIZER                        000017D9    00000006 =           6. bytes (REL,CON)

      Value  Global                              Global Defined In Module
      -----  --------------------------------   ------------------------
     000017D9  Fmain$__xinit_numbers_base_tile_   main

ASxxxx Linker V03.00/V05.40 + sdld,  page 39.
Hexadecimal  [32-Bits]

Area                                    Addr        Size        Decimal Bytes (Attributes)
--------------------------------        ----        ----        ------- ----- ------------
_GSINIT                             000017DF    00000011 =          17. bytes (REL,CON)

      Value  Global                              Global Defined In Module
      -----  --------------------------------   ------------------------
     000017DF  gsinit                             Runtime
     000017EB  A$lcc281200$112                    main
     000017EB  C$main.c$379$1_0$210               main
     000017EE  A$lcc281200$113                    main

ASxxxx Linker V03.00/V05.40 + sdld,  page 40.
Hexadecimal  [32-Bits]

Area                                    Addr        Size        Decimal Bytes (Attributes)
--------------------------------        ----        ----        ------- ----- ------------
_GSFINAL                            000017F0    00000001 =           1. bytes (REL,CON)

      Value  Global                              Global Defined In Module
      -----  --------------------------------   ------------------------
ASxxxx Linker V03.00/V05.40 + sdld,  page 41.
Hexadecimal  [32-Bits]

Area                                    Addr        Size        Decimal Bytes (Attributes)
--------------------------------        ----        ----        ------- ----- ------------
_DATA                               0000C0A0    00000043 =          67. bytes (REL,CON)

      Value  Global                              Global Defined In Module
      -----  --------------------------------   ------------------------
     0000C0A0  __cpu                              Runtime
     0000C0A1  __is_GBA                           Runtime
     0000C0A2  .mode                              Runtime
     0000C0A3  .sys_time                          Runtime
     0000C0A3  _sys_time                          Runtime
     0000C0A5  .int_0x40                          Runtime
     0000C0B1  G$is_gbc$0_0$0                     main
     0000C0B1  _is_gbc                            main
     0000C0B2  G$is_cpu_fast$0_0$0                main
     0000C0B2  _is_cpu_fast                       main
     0000C0B3  G$font$0_0$0                       main
     0000C0B3  _font                              main
     0000C0B5  G$stopwatch$0_0$0                  main
     0000C0B5  _stopwatch                         main
     0000C0B6  G$play_stopwatch_tick_sfx$0_0$0    main
     0000C0B6  _play_stopwatch_tick_sfx           main
     0000C0B7  G$minutes$0_0$0                    main
     0000C0B7  _minutes                           main
     0000C0B8  G$seconds$0_0$0                    main
     0000C0B8  _seconds                           main
     0000C0B9  G$hundredths$0_0$0                 main
     0000C0B9  _hundredths                        main
     0000C0BA  Lmain.handle_inputs$prev_joypad$   main
     0000C0BB  font_current                       font.ms
     0000C0BE  font_first_free_tile               font.ms
     0000C0BF  font_table                         font.ms
     0000C0D1  .int_0x50                          
     0000C0DB  .int_0x48                          

ASxxxx Linker V03.00/V05.40 + sdld,  page 42.
Hexadecimal  [32-Bits]

Area                                    Addr        Size        Decimal Bytes (Attributes)
--------------------------------        ----        ----        ------- ----- ------------
_INITIALIZED                        0000C0E3    00000006 =           6. bytes (REL,CON)

      Value  Global                              Global Defined In Module
      -----  --------------------------------   ------------------------
     0000C0E3  G$numbers_base_tile_idx$0_0$0      main
     0000C0E3  _numbers_base_tile_idx             main
     0000C0E4  .curx                              font.ms
     0000C0E5  .cury                              font.ms
     0000C0E6  .fg_colour                         
     0000C0E6  __current_1bpp_colors              
     0000C0E7  .bg_colour                         
     0000C0E8  .draw_mode                         

ASxxxx Linker V03.00/V05.40 + sdld,  page 43.
Hexadecimal  [32-Bits]

Area                                    Addr        Size        Decimal Bytes (Attributes)
--------------------------------        ----        ----        ------- ----- ------------
_HRAM12                             00000000    00000003 =           3. bytes (ABS,CON)

      Value  Global                              Global Defined In Module
      -----  --------------------------------   ------------------------
     0000FF90  __current_bank                     Runtime
     0000FF92  __shadow_OAM_base                  Runtime

ASxxxx Linker V03.00/V05.40 + sdld,  page 44.
Hexadecimal  [32-Bits]

Area                                    Addr        Size        Decimal Bytes (Attributes)
--------------------------------        ----        ----        ------- ----- ------------
_FONT_HEADER0                       00000000    00000003 =           3. bytes (ABS,CON)

      Value  Global                              Global Defined In Module
      -----  --------------------------------   ------------------------
ASxxxx Linker V03.00/V05.40 + sdld,  page 45.
Hexadecimal  [32-Bits]

Area                                    Addr        Size        Decimal Bytes (Attributes)
--------------------------------        ----        ----        ------- ----- ------------
_HEADER_TIM0                        00000000    00000008 =           8. bytes (ABS,CON)

      Value  Global                              Global Defined In Module
      -----  --------------------------------   ------------------------
ASxxxx Linker V03.00/V05.40 + sdld,  page 46.
Hexadecimal  [32-Bits]

Area                                    Addr        Size        Decimal Bytes (Attributes)
--------------------------------        ----        ----        ------- ----- ------------
_HEADER_LCD0                        00000000    00000003 =           3. bytes (ABS,CON)

      Value  Global                              Global Defined In Module
      -----  --------------------------------   ------------------------
ASxxxx Linker V03.00/V05.40 + sdld,  page 47.

Files Linked                              [ module(s) ]

C:\Users\Spenser\Home\dev\tools\gbdk\lib/gb/crt0.o
                                          [ Runtime ]
C:\Users\Spenser\AppData\Local\Temp/lcc281200.o
                                          [ main ]


Libraries Linked                          [ object file ]

C:\Users\Spenser\Home\dev\tools\gbdk\lib/gb/gb.lib
                                          [ font.o ]
C:\Users\Spenser\Home\dev\tools\gbdk\lib/gb/gb.lib
                                          [ tim.o ]
C:\Users\Spenser\Home\dev\tools\gbdk\lib/gb/gb.lib
                                          [ set_tile.o ]
C:\Users\Spenser\Home\dev\tools\gbdk\lib/gb/gb.lib
                                          [ f_spect.o ]
C:\Users\Spenser\Home\dev\tools\gbdk\lib/gb/gb.lib
                                          [ set_data.o ]
C:\Users\Spenser\Home\dev\tools\gbdk\lib/gb/gb.lib
                                          [ sfr.o ]
C:\Users\Spenser\Home\dev\tools\gbdk\lib/gb/gb.lib
                                          [ tim_common.o ]
C:\Users\Spenser\Home\dev\tools\gbdk\lib/gb/gb.lib
                                          [ init_vram.o ]
C:\Users\Spenser\Home\dev\tools\gbdk\lib/gb/gb.lib
                                          [ pad.o ]
C:\Users\Spenser\Home\dev\tools\gbdk\lib/gb/gb.lib
                                          [ color.o ]
C:\Users\Spenser\Home\dev\tools\gbdk\lib/gb/gb.lib
                                          [ drawing_isr.o ]
C:\Users\Spenser\Home\dev\tools\gbdk\lib/gb/gb.lib
                                          [ f_ibm_sh.o ]
C:\Users\Spenser\Home\dev\tools\gbdk\lib/gb/gb.lib
                                          [ lcd.o ]
C:\Users\Spenser\Home\dev\tools\gbdk\lib/sm83/sm83.lib
                                          [ printf.o ]
C:\Users\Spenser\Home\dev\tools\gbdk\lib/gb/gb.lib
                                          [ cgb.o ]
C:\Users\Spenser\Home\dev\tools\gbdk\lib/gb/gb.lib
                                          [ init_tt.o ]
C:\Users\Spenser\Home\dev\tools\gbdk\lib/gb/gb.lib
                                          [ get_addr.o ]
C:\Users\Spenser\Home\dev\tools\gbdk\lib/gb/gb.lib
                                          [ cgb_compat.o ]
C:\Users\Spenser\Home\dev\tools\gbdk\lib/gb/gb.lib
                                          [ set_1bit_data.o ]
C:\Users\Spenser\Home\dev\tools\gbdk\lib/gb/gb.lib
                                          [ cgb_palettes.o ]
C:\Users\Spenser\Home\dev\tools\gbdk\lib/sm83/sm83.lib
                                          [ sprintf.o ]
C:\Users\Spenser\Home\dev\tools\gbdk\lib/sm83/sm83.lib
                                          [ itoa.o ]
C:\Users\Spenser\Home\dev\tools\gbdk\lib/sm83/sm83.lib
                                          [ __sdcc_call_hl.o ]

ASxxxx Linker V03.00/V05.40 + sdld,  page 48.

User Base Address Definitions

_DATA=0xC0A0
_CODE=0x0200
ASxxxx Linker V03.00/V05.40 + sdld,  page 49.

User Global Definitions

_shadow_OAM=0xC000
.STACK=0xE000
.refresh_OAM=0xFF80

